; Function Attrs: nounwind uwtable
define hidden void @je_arena_prefork8(ptr noundef %0, ptr noundef %1) local_unnamed_addr #0 {
  br label %.preheader

.preheader:                                       ; preds = %2, %._crit_edge
  %indvars.iv15 = phi i64 [ 0, %2 ], [ %indvars.iv.next16, %._crit_edge ]
  %3 = getelementptr inbounds nuw [36 x %struct.bin_info_s], ptr @je_bin_infos, i64 0, i64 %indvars.iv15, i32 3
  %4 = load i32, ptr %3, align 4, !tbaa !107
  %.not = icmp eq i32 %4, 0
  br i1 %.not, label %._crit_edge, label %.lr.ph

.lr.ph:                                           ; preds = %.preheader
  %5 = getelementptr inbounds nuw [36 x i32], ptr @je_arena_bin_offsets, i64 0, i64 %indvars.iv15
  br label %7

6:                                                ; preds = %._crit_edge
  ret void

._crit_edge:                                      ; preds = %7, %.preheader
  %indvars.iv.next16 = add nuw nsw i64 %indvars.iv15, 1
  %exitcond.not = icmp eq i64 %indvars.iv.next16, 36
  br i1 %exitcond.not, label %6, label %.preheader, !llvm.loop !256

7:                                                ; preds = %.lr.ph, %7
  %indvars.iv = phi i64 [ 0, %.lr.ph ], [ %indvars.iv.next, %7 ]
  %8 = load i32, ptr %5, align 4, !tbaa !4
  %9 = zext i32 %8 to i64
  %10 = getelementptr inbounds nuw i8, ptr %1, i64 %9
  %11 = load i32, ptr @je_bin_info_nbatched_sizes, align 4, !tbaa !4
  %12 = zext i32 %11 to i64
  %13 = icmp samesign ult i64 %indvars.iv15, %12
  %14 = getelementptr inbounds nuw %struct.bin_with_batch_s, ptr %10, i64 %indvars.iv
  %15 = getelementptr inbounds nuw %struct.bin_s, ptr %10, i64 %indvars.iv
  %.0.i = select i1 %13, ptr %14, ptr %15
  tail call void @je_bin_prefork(ptr noundef %0, ptr noundef %.0.i, i1 noundef zeroext %13) #18
  %indvars.iv.next = add nuw nsw i64 %indvars.iv, 1
  %16 = load i32, ptr %3, align 4, !tbaa !107
  %17 = zext i32 %16 to i64
  %18 = icmp samesign ult i64 %indvars.iv.next, %17
  br i1 %18, label %7, label %._crit_edge, !llvm.loop !257
}